target datalayout = "e-m:e-p270:32:32-p271:32:32-p272:64:64-i64:64-i128:128-f80:128-n8:16:32:64-S128"
target triple = "x86_64-pc-linux-gnu"

%struct.OptionDef = type { ptr, i32, i32, %union.anon, ptr, ptr, %union.anon.0 }
%union.anon = type { ptr }
%union.anon.0 = type { ptr }
%struct.OptionGroup = type { ptr, ptr, ptr, i32, ptr, ptr, ptr, ptr }
%struct.Option = type { ptr, ptr, ptr }
%struct.OptionParseContext = type { %struct.OptionGroup, ptr, i32, %struct.OptionGroup }

@.str.86 = private unnamed_addr constant [16 x i8] c"Array too big.\0A\00", align 1

; Function Attrs: nounwind uwtable
define i32 @grow_array(ptr noundef %0, i32 noundef %1, ptr noundef %2, i32 noundef %3) #0 {
  %5 = alloca i32, align 4
  %6 = alloca ptr, align 8
  %7 = alloca i32, align 4
  %8 = alloca ptr, align 8
  %9 = alloca i32, align 4
  %10 = alloca ptr, align 8
  %11 = alloca i32, align 4
  store ptr %0, ptr %6, align 8, !tbaa !208
  store i32 %1, ptr %7, align 4, !tbaa !8
  store ptr %2, ptr %8, align 8, !tbaa !60
  store i32 %3, ptr %9, align 4, !tbaa !8
  %12 = load i32, ptr %9, align 4, !tbaa !8
  %13 = load i32, ptr %7, align 4, !tbaa !8
  %14 = sdiv i32 2147483647, %13
  %15 = icmp sge i32 %12, %14
  br i1 %15, label %16, label %17

16:                                               ; preds = %4
  call void (ptr, i32, ptr, ...) @av_log(ptr noundef null, i32 noundef 16, ptr noundef @.str.86)
  store i32 -34, ptr %5, align 4
  br label %54

17:                                               ; preds = %4
  %18 = load ptr, ptr %8, align 8, !tbaa !60
  %19 = load i32, ptr %18, align 4, !tbaa !8
  %20 = load i32, ptr %9, align 4, !tbaa !8
  %21 = icmp slt i32 %19, %20
  br i1 %21, label %22, label %53

22:                                               ; preds = %17
  call void @llvm.lifetime.start.p0(i64 8, ptr %10) #11
  %23 = load ptr, ptr %6, align 8, !tbaa !208
  %24 = load ptr, ptr %23, align 8, !tbaa !4
  %25 = load i32, ptr %9, align 4, !tbaa !8
  %26 = sext i32 %25 to i64
  %27 = load i32, ptr %7, align 4, !tbaa !8
  %28 = sext i32 %27 to i64
  %29 = call ptr @av_realloc_array(ptr noundef %24, i64 noundef %26, i64 noundef %28)
  store ptr %29, ptr %10, align 8, !tbaa !10
  %30 = load ptr, ptr %10, align 8, !tbaa !10
  %31 = icmp ne ptr %30, null
  br i1 %31, label %33, label %32

32:                                               ; preds = %22
  store i32 -12, ptr %5, align 4
  store i32 1, ptr %11, align 4
  br label %52

33:                                               ; preds = %22
  %34 = load ptr, ptr %10, align 8, !tbaa !10
  %35 = load ptr, ptr %8, align 8, !tbaa !60
  %36 = load i32, ptr %35, align 4, !tbaa !8
  %37 = load i32, ptr %7, align 4, !tbaa !8
  %38 = mul nsw i32 %36, %37
  %39 = sext i32 %38 to i64
  %40 = getelementptr inbounds i8, ptr %34, i64 %39
  %41 = load i32, ptr %9, align 4, !tbaa !8
  %42 = load ptr, ptr %8, align 8, !tbaa !60
  %43 = load i32, ptr %42, align 4, !tbaa !8
  %44 = sub nsw i32 %41, %43
  %45 = load i32, ptr %7, align 4, !tbaa !8
  %46 = mul nsw i32 %44, %45
  %47 = sext i32 %46 to i64
  call void @llvm.memset.p0.i64(ptr align 1 %40, i8 0, i64 %47, i1 false)
  %48 = load i32, ptr %9, align 4, !tbaa !8
  %49 = load ptr, ptr %8, align 8, !tbaa !60
  store i32 %48, ptr %49, align 4, !tbaa !8
  %50 = load ptr, ptr %10, align 8, !tbaa !10
  %51 = load ptr, ptr %6, align 8, !tbaa !208
  store ptr %50, ptr %51, align 8, !tbaa !4
  store i32 0, ptr %5, align 4
  store i32 1, ptr %11, align 4
  br label %52

52:                                               ; preds = %33, %32
  call void @llvm.lifetime.end.p0(i64 8, ptr %10) #11
  br label %54

53:                                               ; preds = %17
  store i32 0, ptr %5, align 4
  br label %54

54:                                               ; preds = %53, %52, %16
  %55 = load i32, ptr %5, align 4
  ret i32 %55
}

; Function Attrs: nounwind uwtable
define internal i32 @add_opt(ptr noundef %0, ptr noundef %1, ptr noundef %2, ptr noundef %3) #0 {
  %5 = alloca i32, align 4
  %6 = alloca ptr, align 8
  %7 = alloca ptr, align 8
  %8 = alloca ptr, align 8
  %9 = alloca ptr, align 8
  %10 = alloca i32, align 4
  %11 = alloca ptr, align 8
  %12 = alloca i32, align 4
  %13 = alloca i32, align 4
  store ptr %0, ptr %6, align 8, !tbaa !90
  store ptr %1, ptr %7, align 8, !tbaa !21
  store ptr %2, ptr %8, align 8, !tbaa !10
  store ptr %3, ptr %9, align 8, !tbaa !10
  call void @llvm.lifetime.start.p0(i64 4, ptr %10) #11
  %14 = load ptr, ptr %7, align 8, !tbaa !21
  %15 = getelementptr inbounds nuw %struct.OptionDef, ptr %14, i32 0, i32 2
  %16 = load i32, ptr %15, align 4, !tbaa !25
  %17 = and i32 %16, 128
  %18 = icmp ne i32 %17, 0
  %19 = xor i1 %18, true
  %20 = zext i1 %19 to i32
  store i32 %20, ptr %10, align 4, !tbaa !8
  call void @llvm.lifetime.start.p0(i64 8, ptr %11) #11
  %21 = load i32, ptr %10, align 4, !tbaa !8
  %22 = icmp ne i32 %21, 0
  br i1 %22, label %23, label %26

23:                                               ; preds = %4
  %24 = load ptr, ptr %6, align 8, !tbaa !90
  %25 = getelementptr inbounds nuw %struct.OptionParseContext, ptr %24, i32 0, i32 0
  br label %29

26:                                               ; preds = %4
  %27 = load ptr, ptr %6, align 8, !tbaa !90
  %28 = getelementptr inbounds nuw %struct.OptionParseContext, ptr %27, i32 0, i32 3
  br label %29

29:                                               ; preds = %26, %23
  %30 = phi ptr [ %25, %23 ], [ %28, %26 ]
  store ptr %30, ptr %11, align 8, !tbaa !65
  call void @llvm.lifetime.start.p0(i64 4, ptr %12) #11
  %31 = load ptr, ptr %11, align 8, !tbaa !65
  %32 = getelementptr inbounds nuw %struct.OptionGroup, ptr %31, i32 0, i32 2
  %33 = load ptr, ptr %11, align 8, !tbaa !65
  %34 = getelementptr inbounds nuw %struct.OptionGroup, ptr %33, i32 0, i32 3
  %35 = load ptr, ptr %11, align 8, !tbaa !65
  %36 = getelementptr inbounds nuw %struct.OptionGroup, ptr %35, i32 0, i32 3
  %37 = load i32, ptr %36, align 8, !tbaa !75
  %38 = add nsw i32 %37, 1
  %39 = call i32 @grow_array(ptr noundef %32, i32 noundef 24, ptr noundef %34, i32 noundef %38)
  store i32 %39, ptr %12, align 4, !tbaa !8
  %40 = load i32, ptr %12, align 4, !tbaa !8
  %41 = icmp slt i32 %40, 0
  br i1 %41, label %42, label %44

42:                                               ; preds = %29
  %43 = load i32, ptr %12, align 4, !tbaa !8
  store i32 %43, ptr %5, align 4
  store i32 1, ptr %13, align 4
  br label %78

44:                                               ; preds = %29
  %45 = load ptr, ptr %7, align 8, !tbaa !21
  %46 = load ptr, ptr %11, align 8, !tbaa !65
  %47 = getelementptr inbounds nuw %struct.OptionGroup, ptr %46, i32 0, i32 2
  %48 = load ptr, ptr %47, align 8, !tbaa !76
  %49 = load ptr, ptr %11, align 8, !tbaa !65
  %50 = getelementptr inbounds nuw %struct.OptionGroup, ptr %49, i32 0, i32 3
  %51 = load i32, ptr %50, align 8, !tbaa !75
  %52 = sub nsw i32 %51, 1
  %53 = sext i32 %52 to i64
  %54 = getelementptr inbounds %struct.Option, ptr %48, i64 %53
  %55 = getelementptr inbounds nuw %struct.Option, ptr %54, i32 0, i32 0
  store ptr %45, ptr %55, align 8, !tbaa !79
  %56 = load ptr, ptr %8, align 8, !tbaa !10
  %57 = load ptr, ptr %11, align 8, !tbaa !65
  %58 = getelementptr inbounds nuw %struct.OptionGroup, ptr %57, i32 0, i32 2
  %59 = load ptr, ptr %58, align 8, !tbaa !76
  %60 = load ptr, ptr %11, align 8, !tbaa !65
  %61 = getelementptr inbounds nuw %struct.OptionGroup, ptr %60, i32 0, i32 3
  %62 = load i32, ptr %61, align 8, !tbaa !75
  %63 = sub nsw i32 %62, 1
  %64 = sext i32 %63 to i64
  %65 = getelementptr inbounds %struct.Option, ptr %59, i64 %64
  %66 = getelementptr inbounds nuw %struct.Option, ptr %65, i32 0, i32 1
  store ptr %56, ptr %66, align 8, !tbaa !81
  %67 = load ptr, ptr %9, align 8, !tbaa !10
  %68 = load ptr, ptr %11, align 8, !tbaa !65
  %69 = getelementptr inbounds nuw %struct.OptionGroup, ptr %68, i32 0, i32 2
  %70 = load ptr, ptr %69, align 8, !tbaa !76
  %71 = load ptr, ptr %11, align 8, !tbaa !65
  %72 = getelementptr inbounds nuw %struct.OptionGroup, ptr %71, i32 0, i32 3
  %73 = load i32, ptr %72, align 8, !tbaa !75
  %74 = sub nsw i32 %73, 1
  %75 = sext i32 %74 to i64
  %76 = getelementptr inbounds %struct.Option, ptr %70, i64 %75
  %77 = getelementptr inbounds nuw %struct.Option, ptr %76, i32 0, i32 2
  store ptr %67, ptr %77, align 8, !tbaa !82
  store i32 0, ptr %5, align 4
  store i32 1, ptr %13, align 4
  br label %78

78:                                               ; preds = %44, %42
  call void @llvm.lifetime.end.p0(i64 4, ptr %12) #11
  call void @llvm.lifetime.end.p0(i64 8, ptr %11) #11
  call void @llvm.lifetime.end.p0(i64 4, ptr %10) #11
  %79 = load i32, ptr %5, align 4
  ret i32 %79
}