; Function Attrs: nounwind uwtable
define internal fastcc range(i32 -34, 1) i32 @add_opt(ptr noundef captures(none) %0, ptr noundef %1, ptr noundef %2, ptr noundef %3) unnamed_addr #0 {
  %5 = getelementptr inbounds nuw i8, ptr %1, i64 12
  %6 = load i32, ptr %5, align 4, !tbaa !17
  %7 = and i32 %6, 128
  %.not = icmp eq i32 %7, 0
  %.idx = select i1 %.not, i64 0, i64 80
  %8 = getelementptr inbounds nuw i8, ptr %0, i64 %.idx
  %9 = getelementptr inbounds nuw i8, ptr %8, i64 16
  %10 = getelementptr inbounds nuw i8, ptr %8, i64 24
  %11 = load i32, ptr %10, align 8, !tbaa !57
  %12 = add nsw i32 %11, 1
  %.not.i = icmp slt i32 %11, 89478484
  br i1 %.not.i, label %14, label %13

13:                                               ; preds = %4
  tail call void (ptr, i32, ptr, ...) @av_log(ptr noundef null, i32 noundef 16, ptr noundef nonnull @.str.86) #15
  br label %grow_array.exit.thread

14:                                               ; preds = %4
  %15 = load ptr, ptr %9, align 8, !tbaa !24
  %16 = sext i32 %12 to i64
  %17 = tail call ptr @av_realloc_array(ptr noundef %15, i64 noundef %16, i64 noundef 24) #15
  %.not20.i = icmp eq ptr %17, null
  br i1 %.not20.i, label %grow_array.exit.thread, label %18

18:                                               ; preds = %14
  %19 = load i32, ptr %10, align 4, !tbaa !37
  %20 = mul nsw i32 %19, 24
  %21 = sext i32 %20 to i64
  %22 = getelementptr inbounds i8, ptr %17, i64 %21
  %23 = sub nsw i32 %12, %19
  %24 = mul nsw i32 %23, 24
  %25 = sext i32 %24 to i64
  tail call void @llvm.memset.p0.i64(ptr nonnull align 1 %22, i8 0, i64 %25, i1 false)
  store i32 %12, ptr %10, align 4, !tbaa !37
  store ptr %17, ptr %9, align 8, !tbaa !24
  %26 = getelementptr %struct.Option, ptr %17, i64 %16
  %27 = getelementptr i8, ptr %26, i64 -24
  store ptr %1, ptr %27, align 8, !tbaa !61
  %28 = getelementptr i8, ptr %26, i64 -16
  store ptr %2, ptr %28, align 8, !tbaa !63
  %29 = getelementptr i8, ptr %26, i64 -8
  store ptr %3, ptr %29, align 8, !tbaa !64
  br label %grow_array.exit.thread

grow_array.exit.thread:                           ; preds = %14, %13, %18
  %.0 = phi i32 [ 0, %18 ], [ -12, %14 ], [ -34, %13 ]
  ret i32 %.0
}